; Function Attrs: mustprogress nofree norecurse nosync nounwind willreturn memory(read, inaccessiblemem: none) uwtable
define noundef double @_ZNK5Ipopt11DenseVector7SumImplEv(ptr nocapture noundef nonnull readonly align 8 dereferenceable(248) %0) unnamed_addr #10 align 2 {
  %2 = getelementptr inbounds i8, ptr %0, i64 233
  %3 = load i8, ptr %2, align 1
  %4 = and i8 %3, 1
  %.not = icmp eq i8 %4, 0
  %5 = getelementptr inbounds i8, ptr %0, i64 56
  %6 = load ptr, ptr %5, align 8
  %7 = getelementptr inbounds i8, ptr %6, i64 12
  %8 = load i32, ptr %7, align 4
  br i1 %.not, label %.preheader, label %12

.preheader:                                       ; preds = %1
  %9 = icmp sgt i32 %8, 0
  br i1 %9, label %.lr.ph, label %.loopexit

.lr.ph:                                           ; preds = %.preheader
  %10 = getelementptr inbounds i8, ptr %0, i64 216
  %11 = load ptr, ptr %10, align 8
  %wide.trip.count = zext nneg i32 %8 to i64
  br label %17

12:                                               ; preds = %1
  %13 = sitofp i32 %8 to double
  %14 = getelementptr inbounds i8, ptr %0, i64 240
  %15 = load double, ptr %14, align 8
  %16 = fmul double %15, %13
  br label %.loopexit

17:                                               ; preds = %.lr.ph, %17
  %indvars.iv = phi i64 [ 0, %.lr.ph ], [ %indvars.iv.next, %17 ]
  %.056 = phi double [ 0.000000e+00, %.lr.ph ], [ %20, %17 ]
  %18 = getelementptr inbounds double, ptr %11, i64 %indvars.iv
  %19 = load double, ptr %18, align 8
  %20 = fadd double %.056, %19
  %indvars.iv.next = add nuw nsw i64 %indvars.iv, 1
  %exitcond.not = icmp eq i64 %indvars.iv.next, %wide.trip.count
  br i1 %exitcond.not, label %.loopexit, label %17, !llvm.loop !28

.loopexit:                                        ; preds = %17, %.preheader, %12
  %.1 = phi double [ %16, %12 ], [ 0.000000e+00, %.preheader ], [ %20, %17 ]
  ret double %.1
}